; Function Attrs: nounwind uwtable
define noalias nonnull ptr @l_Lean_Elab_Term_expandWhereDeclsOpt(ptr noundef %0, ptr noundef %1, ptr noundef readonly captures(none) %2, ptr noundef %3) local_unnamed_addr #1 {
  %5 = tail call zeroext i8 @l_Lean_Syntax_isNone(ptr noundef %0) #6
  %6 = icmp eq i8 %5, 0
  br i1 %6, label %7, label %10

7:                                                ; preds = %4
  %8 = tail call ptr @l_Lean_Syntax_getArg(ptr noundef %0, ptr noundef nonnull inttoptr (i64 1 to ptr)) #6
  %9 = tail call ptr @l_Lean_Elab_Term_expandWhereDecls(ptr noundef %8, ptr noundef %1, ptr noundef %2, ptr noundef %3)
  br label %17

10:                                               ; preds = %4
  tail call void @lean_inc_heartbeat() #6
  %11 = tail call noalias ptr @mi_malloc_small(i64 noundef 24) #6
  %12 = icmp eq ptr %11, null
  br i1 %12, label %13, label %lean_alloc_ctor.exit

13:                                               ; preds = %10
  tail call void @lean_internal_panic_out_of_memory() #7
  unreachable

lean_alloc_ctor.exit:                             ; preds = %10
  %14 = getelementptr inbounds nuw i8, ptr %11, i64 4
  store i32 1, ptr %11, align 4, !tbaa !8
  store i32 131096, ptr %14, align 4
  %15 = getelementptr inbounds nuw i8, ptr %11, i64 8
  store ptr %1, ptr %15, align 8, !tbaa !4
  %16 = getelementptr inbounds nuw i8, ptr %11, i64 16
  store ptr %3, ptr %16, align 8, !tbaa !4
  br label %17

17:                                               ; preds = %lean_alloc_ctor.exit, %7
  %.0 = phi ptr [ %9, %7 ], [ %11, %lean_alloc_ctor.exit ]
  ret ptr %.0
}